; Function Attrs: mustprogress uwtable
define hidden noundef range(i32 -100, 1) i32 @_ZNK4ncnn8DeepCopy7forwardERKNS_3MatERS1_RKNS_6OptionE(ptr nonnull readnone align 8 captures(none) %0, ptr noundef nonnull align 8 dereferenceable(72) %1, ptr noundef nonnull align 8 dereferenceable(72) %2, ptr nonnull readnone align 8 captures(none) %3) unnamed_addr #3 align 2 personality ptr @__gxx_personality_v0 {
  %5 = alloca %"class.ncnn::Mat", align 8
  call void @llvm.lifetime.start.p0(i64 72, ptr nonnull %5) #9
  call void @_ZNK4ncnn3Mat5cloneEPNS_9AllocatorE(ptr dead_on_unwind nonnull writable sret(%"class.ncnn::Mat") align 8 %5, ptr noundef nonnull align 8 dereferenceable(72) %1, ptr noundef null)
  %6 = icmp eq ptr %2, %5
  %.phi.trans.insert = getelementptr inbounds nuw i8, ptr %5, i64 8
  %.pre = load ptr, ptr %.phi.trans.insert, align 8, !tbaa !4
  br i1 %6, label %_ZN4ncnn3MataSERKS0_.exit, label %7

7:                                                ; preds = %4
  %.not.i = icmp eq ptr %.pre, null
  br i1 %.not.i, label %10, label %8

8:                                                ; preds = %7
  %9 = atomicrmw add ptr %.pre, i32 1 acq_rel, align 4
  br label %10

10:                                               ; preds = %8, %7
  %11 = getelementptr inbounds nuw i8, ptr %2, i64 8
  %12 = load ptr, ptr %11, align 8, !tbaa !4
  %.not.i12 = icmp eq ptr %12, null
  br i1 %.not.i12, label %.noexc, label %13

13:                                               ; preds = %10
  %14 = atomicrmw add ptr %12, i32 -1 acq_rel, align 4
  %15 = icmp eq i32 %14, 1
  br i1 %15, label %16, label %.noexc

16:                                               ; preds = %13
  %17 = getelementptr inbounds nuw i8, ptr %2, i64 32
  %18 = load ptr, ptr %17, align 8, !tbaa !13
  %.not3.i13 = icmp eq ptr %18, null
  %19 = load ptr, ptr %2, align 8, !tbaa !14
  br i1 %.not3.i13, label %24, label %20

20:                                               ; preds = %16
  %21 = load ptr, ptr %18, align 8, !tbaa !15
  %22 = getelementptr inbounds nuw i8, ptr %21, i64 24
  %23 = load ptr, ptr %22, align 8
  invoke void %23(ptr noundef nonnull align 8 dereferenceable(8) %18, ptr noundef %19)
          to label %.noexc unwind label %83

24:                                               ; preds = %16
  %.not.i16 = icmp eq ptr %19, null
  br i1 %.not.i16, label %.noexc, label %25

25:                                               ; preds = %24
  call void @free(ptr noundef nonnull %19) #9
  br label %.noexc

.noexc:                                           ; preds = %13, %10, %20, %24, %25
  %26 = getelementptr inbounds nuw i8, ptr %2, i64 16
  %27 = getelementptr inbounds nuw i8, ptr %2, i64 24
  %28 = getelementptr inbounds nuw i8, ptr %2, i64 40
  %29 = getelementptr inbounds nuw i8, ptr %2, i64 44
  %30 = getelementptr inbounds nuw i8, ptr %2, i64 48
  %31 = getelementptr inbounds nuw i8, ptr %2, i64 52
  %32 = getelementptr inbounds nuw i8, ptr %2, i64 56
  %33 = getelementptr inbounds nuw i8, ptr %2, i64 64
  %34 = load ptr, ptr %5, align 8, !tbaa !14
  store ptr %34, ptr %2, align 8, !tbaa !14
  %35 = load ptr, ptr %.phi.trans.insert, align 8, !tbaa !4
  store ptr %35, ptr %11, align 8, !tbaa !4
  %36 = getelementptr inbounds nuw i8, ptr %5, i64 16
  %37 = load i64, ptr %36, align 8, !tbaa !17
  store i64 %37, ptr %26, align 8, !tbaa !17
  %38 = getelementptr inbounds nuw i8, ptr %5, i64 24
  %39 = load i32, ptr %38, align 8, !tbaa !18
  store i32 %39, ptr %27, align 8, !tbaa !18
  %40 = getelementptr inbounds nuw i8, ptr %5, i64 32
  %41 = load ptr, ptr %40, align 8, !tbaa !13
  %42 = getelementptr inbounds nuw i8, ptr %2, i64 32
  store ptr %41, ptr %42, align 8, !tbaa !13
  %43 = getelementptr inbounds nuw i8, ptr %5, i64 40
  %44 = load i32, ptr %43, align 8, !tbaa !19
  store i32 %44, ptr %28, align 8, !tbaa !19
  %45 = getelementptr inbounds nuw i8, ptr %5, i64 44
  %46 = load i32, ptr %45, align 4, !tbaa !20
  store i32 %46, ptr %29, align 4, !tbaa !20
  %47 = getelementptr inbounds nuw i8, ptr %5, i64 48
  %48 = load i32, ptr %47, align 8, !tbaa !21
  store i32 %48, ptr %30, align 8, !tbaa !21
  %49 = getelementptr inbounds nuw i8, ptr %5, i64 52
  %50 = load i32, ptr %49, align 4, !tbaa !22
  store i32 %50, ptr %31, align 4, !tbaa !22
  %51 = getelementptr inbounds nuw i8, ptr %5, i64 56
  %52 = load i32, ptr %51, align 8, !tbaa !23
  store i32 %52, ptr %32, align 8, !tbaa !23
  %53 = getelementptr inbounds nuw i8, ptr %5, i64 64
  %54 = load i64, ptr %53, align 8, !tbaa !24
  store i64 %54, ptr %33, align 8, !tbaa !24
  br label %_ZN4ncnn3MataSERKS0_.exit

_ZN4ncnn3MataSERKS0_.exit:                        ; preds = %4, %.noexc
  %55 = phi ptr [ %35, %.noexc ], [ %.pre, %4 ]
  %.not.i8 = icmp eq ptr %55, null
  br i1 %.not.i8, label %_ZN4ncnn3MatD2Ev.exit, label %56

56:                                               ; preds = %_ZN4ncnn3MataSERKS0_.exit
  %57 = atomicrmw add ptr %55, i32 -1 acq_rel, align 4
  %58 = icmp eq i32 %57, 1
  br i1 %58, label %59, label %_ZN4ncnn3MatD2Ev.exit

59:                                               ; preds = %56
  %60 = getelementptr inbounds nuw i8, ptr %5, i64 32
  %61 = load ptr, ptr %60, align 8, !tbaa !13
  %.not3.i9 = icmp eq ptr %61, null
  %62 = load ptr, ptr %5, align 8, !tbaa !14
  br i1 %.not3.i9, label %67, label %63

63:                                               ; preds = %59
  %64 = load ptr, ptr %61, align 8, !tbaa !15
  %65 = getelementptr inbounds nuw i8, ptr %64, i64 24
  %66 = load ptr, ptr %65, align 8
  invoke void %66(ptr noundef nonnull align 8 dereferenceable(8) %61, ptr noundef %62)
          to label %_ZN4ncnn3MatD2Ev.exit unwind label %69

67:                                               ; preds = %59
  %.not.i17 = icmp eq ptr %62, null
  br i1 %.not.i17, label %_ZN4ncnn3MatD2Ev.exit, label %68

68:                                               ; preds = %67
  call void @free(ptr noundef nonnull %62) #9
  br label %_ZN4ncnn3MatD2Ev.exit

69:                                               ; preds = %63
  %70 = landingpad { ptr, i32 }
          catch ptr null
  %71 = extractvalue { ptr, i32 } %70, 0
  call void @__clang_call_terminate(ptr %71) #11
  unreachable

_ZN4ncnn3MatD2Ev.exit:                            ; preds = %56, %_ZN4ncnn3MataSERKS0_.exit, %63, %67, %68
  call void @llvm.lifetime.end.p0(i64 72, ptr nonnull %5) #9
  %72 = load ptr, ptr %2, align 8, !tbaa !14
  %73 = icmp eq ptr %72, null
  br i1 %73, label %_ZNK4ncnn3Mat5emptyEv.exit.thread, label %_ZNK4ncnn3Mat5emptyEv.exit

_ZNK4ncnn3Mat5emptyEv.exit:                       ; preds = %_ZN4ncnn3MatD2Ev.exit
  %74 = getelementptr inbounds nuw i8, ptr %2, i64 64
  %75 = load i64, ptr %74, align 8, !tbaa !24
  %76 = getelementptr inbounds nuw i8, ptr %2, i64 56
  %77 = load i32, ptr %76, align 8, !tbaa !23
  %78 = sext i32 %77 to i64
  %79 = mul i64 %75, %78
  %.fr = freeze i64 %79
  %80 = icmp eq i64 %.fr, 0
  br i1 %80, label %_ZNK4ncnn3Mat5emptyEv.exit.thread, label %81

_ZNK4ncnn3Mat5emptyEv.exit.thread:                ; preds = %_ZN4ncnn3MatD2Ev.exit, %_ZNK4ncnn3Mat5emptyEv.exit
  br label %81

81:                                               ; preds = %_ZNK4ncnn3Mat5emptyEv.exit, %_ZNK4ncnn3Mat5emptyEv.exit.thread
  %82 = phi i32 [ -100, %_ZNK4ncnn3Mat5emptyEv.exit.thread ], [ 0, %_ZNK4ncnn3Mat5emptyEv.exit ]
  ret i32 %82

83:                                               ; preds = %20
  %84 = landingpad { ptr, i32 }
          cleanup
  %85 = load ptr, ptr %.phi.trans.insert, align 8, !tbaa !4
  %.not.i6 = icmp eq ptr %85, null
  br i1 %.not.i6, label %_ZN4ncnn3MatD2Ev.exit5, label %86

86:                                               ; preds = %83
  %87 = atomicrmw add ptr %85, i32 -1 acq_rel, align 4
  %88 = icmp eq i32 %87, 1
  br i1 %88, label %89, label %_ZN4ncnn3MatD2Ev.exit5

89:                                               ; preds = %86
  %90 = getelementptr inbounds nuw i8, ptr %5, i64 32
  %91 = load ptr, ptr %90, align 8, !tbaa !13
  %.not3.i = icmp eq ptr %91, null
  %92 = load ptr, ptr %5, align 8, !tbaa !14
  br i1 %.not3.i, label %97, label %93

93:                                               ; preds = %89
  %94 = load ptr, ptr %91, align 8, !tbaa !15
  %95 = getelementptr inbounds nuw i8, ptr %94, i64 24
  %96 = load ptr, ptr %95, align 8
  invoke void %96(ptr noundef nonnull align 8 dereferenceable(8) %91, ptr noundef %92)
          to label %_ZN4ncnn3MatD2Ev.exit5 unwind label %99

97:                                               ; preds = %89
  %.not.i19 = icmp eq ptr %92, null
  br i1 %.not.i19, label %_ZN4ncnn3MatD2Ev.exit5, label %98

98:                                               ; preds = %97
  call void @free(ptr noundef nonnull %92) #9
  br label %_ZN4ncnn3MatD2Ev.exit5

99:                                               ; preds = %93
  %100 = landingpad { ptr, i32 }
          catch ptr null
  %101 = extractvalue { ptr, i32 } %100, 0
  call void @__clang_call_terminate(ptr %101) #11
  unreachable

_ZN4ncnn3MatD2Ev.exit5:                           ; preds = %86, %83, %93, %97, %98
  call void @llvm.lifetime.end.p0(i64 72, ptr nonnull %5) #9
  resume { ptr, i32 } %84
}